; Function Attrs: nounwind uwtable
define ptr @l_Lean_Omega_bmod__coeffs___boxed(ptr noundef %0, ptr noundef %1, ptr noundef %2) local_unnamed_addr #1 {
  %4 = ptrtoint ptr %0 to i64
  %5 = and i64 %4, 1
  %.not.i5 = icmp eq i64 %5, 0
  br i1 %.not.i5, label %6, label %lean_inc.exit.i

6:                                                ; preds = %3
  %.val.i.i = load i32, ptr %0, align 4, !tbaa !6
  %7 = icmp sgt i32 %.val.i.i, 0
  br i1 %7, label %8, label %10, !prof !5

8:                                                ; preds = %6
  %9 = add nuw i32 %.val.i.i, 1
  store i32 %9, ptr %0, align 4, !tbaa !6
  br label %lean_inc.exit.thread.i

10:                                               ; preds = %6
  %.not.i.i = icmp eq i32 %.val.i.i, 0
  br i1 %.not.i.i, label %lean_inc.exit.thread.i, label %11

11:                                               ; preds = %10
  tail call void @lean_inc_ref_cold(ptr noundef nonnull %0) #4
  br label %lean_inc.exit.thread.i

lean_inc.exit.thread.i:                           ; preds = %11, %10, %8
  %12 = tail call ptr @l_List_mapTR_loop___at_Lean_Omega_bmod__coeffs___spec__1(ptr noundef nonnull %0, ptr noundef %2, ptr noundef nonnull inttoptr (i64 1 to ptr))
  br label %l_Lean_Omega_bmod__coeffs.exit

lean_inc.exit.i:                                  ; preds = %3
  %13 = tail call ptr @l_List_mapTR_loop___at_Lean_Omega_bmod__coeffs___spec__1(ptr noundef %0, ptr noundef %2, ptr noundef nonnull inttoptr (i64 1 to ptr))
  %14 = icmp ult ptr %0, inttoptr (i64 4294967296 to ptr)
  br i1 %14, label %l_Lean_Omega_bmod__coeffs.exit, label %15

15:                                               ; preds = %lean_inc.exit.i
  %16 = lshr i64 %4, 1
  %17 = tail call ptr @lean_big_size_t_to_int(i64 noundef %16) #4
  br label %l_Lean_Omega_bmod__coeffs.exit

l_Lean_Omega_bmod__coeffs.exit:                   ; preds = %lean_inc.exit.thread.i, %lean_inc.exit.i, %15
  %18 = phi ptr [ %13, %15 ], [ %13, %lean_inc.exit.i ], [ %12, %lean_inc.exit.thread.i ]
  %.1.i.i = phi ptr [ %17, %15 ], [ %0, %lean_inc.exit.i ], [ %0, %lean_inc.exit.thread.i ]
  %19 = tail call ptr @l_Lean_Omega_IntList_set(ptr noundef %18, ptr noundef %1, ptr noundef %.1.i.i) #4
  %20 = ptrtoint ptr %1 to i64
  %21 = and i64 %20, 1
  %.not = icmp eq i64 %21, 0
  br i1 %.not, label %22, label %lean_dec.exit

22:                                               ; preds = %l_Lean_Omega_bmod__coeffs.exit
  %23 = load i32, ptr %1, align 4, !tbaa !6
  %24 = icmp sgt i32 %23, 1
  br i1 %24, label %25, label %27, !prof !5

25:                                               ; preds = %22
  %26 = add nsw i32 %23, -1
  store i32 %26, ptr %1, align 4, !tbaa !6
  br label %lean_dec.exit

27:                                               ; preds = %22
  %.not.i = icmp eq i32 %23, 0
  br i1 %.not.i, label %lean_dec.exit, label %28

28:                                               ; preds = %27
  tail call void @lean_dec_ref_cold(ptr noundef nonnull %1) #4
  br label %lean_dec.exit

lean_dec.exit:                                    ; preds = %28, %27, %25, %l_Lean_Omega_bmod__coeffs.exit
  ret ptr %19
}